target datalayout = "e-m:e-p270:32:32-p271:32:32-p272:64:64-i64:64-i128:128-f80:128-n8:16:32:64-S128"
target triple = "x86_64-pc-linux-gnu"

%"class.nix::PosIdx" = type { i32 }
%"class.nix::Symbol" = type { i32 }
%"class.nix::Bindings" = type { %"class.nix::PosIdx", i32, i32, [0 x %"struct.nix::Attr"] }
%"struct.nix::Attr" = type { %"class.nix::Symbol", %"class.nix::PosIdx", ptr }

; Function Attrs: mustprogress nounwind uwtable
define linkonce_odr noundef i64 @_ZSt4__lgl(i64 noundef %0) #2 comdat {
  %2 = alloca i64, align 8
  store i64 %0, ptr %2, align 8
  %3 = load i64, ptr %2, align 8
  %4 = call i64 @llvm.ctlz.i64(i64 %3, i1 true)
  %5 = trunc i64 %4 to i32
  %6 = sub nsw i32 63, %5
  %7 = sext i32 %6 to i64
  ret i64 %7
}

; Function Attrs: mustprogress uwtable
define linkonce_odr void @_ZSt6__sortIPN3nix4AttrEN9__gnu_cxx5__ops15_Iter_less_iterEEvT_S6_T0_(ptr noundef %0, ptr noundef %1) #5 comdat {
  %3 = alloca ptr, align 8
  %4 = alloca ptr, align 8
  store ptr %0, ptr %3, align 8
  store ptr %1, ptr %4, align 8
  %5 = load ptr, ptr %3, align 8
  %6 = load ptr, ptr %4, align 8
  %7 = icmp ne ptr %5, %6
  br i1 %7, label %8, label %21

8:                                                ; preds = %2
  %9 = load ptr, ptr %3, align 8
  %10 = load ptr, ptr %4, align 8
  %11 = load ptr, ptr %4, align 8
  %12 = load ptr, ptr %3, align 8
  %13 = ptrtoint ptr %11 to i64
  %14 = ptrtoint ptr %12 to i64
  %15 = sub i64 %13, %14
  %16 = sdiv exact i64 %15, 16
  %17 = call noundef i64 @_ZSt4__lgl(i64 noundef %16)
  %18 = mul nsw i64 %17, 2
  call void @_ZSt16__introsort_loopIPN3nix4AttrElN9__gnu_cxx5__ops15_Iter_less_iterEEvT_S6_T0_T1_(ptr noundef %9, ptr noundef %10, i64 noundef %18)
  %19 = load ptr, ptr %3, align 8
  %20 = load ptr, ptr %4, align 8
  call void @_ZSt22__final_insertion_sortIPN3nix4AttrEN9__gnu_cxx5__ops15_Iter_less_iterEEvT_S6_T0_(ptr noundef %19, ptr noundef %20)
  br label %21

21:                                               ; preds = %8, %2
  ret void
}

; Function Attrs: mustprogress nounwind uwtable
define linkonce_odr void @_ZN9__gnu_cxx5__ops16__iter_less_iterEv() #2 comdat {
  ret void
}

; Function Attrs: mustprogress uwtable
define linkonce_odr void @_ZSt4sortIPN3nix4AttrEEvT_S3_(ptr noundef %0, ptr noundef %1) #5 comdat {
  %3 = alloca ptr, align 8
  %4 = alloca ptr, align 8
  store ptr %0, ptr %3, align 8
  store ptr %1, ptr %4, align 8
  %5 = load ptr, ptr %3, align 8
  %6 = load ptr, ptr %4, align 8
  call void @_ZN9__gnu_cxx5__ops16__iter_less_iterEv()
  call void @_ZSt6__sortIPN3nix4AttrEN9__gnu_cxx5__ops15_Iter_less_iterEEvT_S6_T0_(ptr noundef %5, ptr noundef %6)
  ret void
}

; Function Attrs: mustprogress nounwind uwtable
define linkonce_odr noundef ptr @_ZN3nix8Bindings3endEv(ptr noundef nonnull align 8 dereferenceable(16) %0) #2 comdat align 2 {
  %2 = alloca ptr, align 8
  store ptr %0, ptr %2, align 8
  %3 = load ptr, ptr %2, align 8
  %4 = getelementptr inbounds %"class.nix::Bindings", ptr %3, i32 0, i32 3
  %5 = getelementptr inbounds %"class.nix::Bindings", ptr %3, i32 0, i32 1
  %6 = load i32, ptr %5, align 4
  %7 = zext i32 %6 to i64
  %8 = getelementptr inbounds [0 x %"struct.nix::Attr"], ptr %4, i64 0, i64 %7
  ret ptr %8
}

; Function Attrs: mustprogress nounwind uwtable
define linkonce_odr noundef ptr @_ZN3nix8Bindings5beginEv(ptr noundef nonnull align 8 dereferenceable(16) %0) #2 comdat align 2 {
  %2 = alloca ptr, align 8
  store ptr %0, ptr %2, align 8
  %3 = load ptr, ptr %2, align 8
  %4 = getelementptr inbounds %"class.nix::Bindings", ptr %3, i32 0, i32 3
  %5 = getelementptr inbounds [0 x %"struct.nix::Attr"], ptr %4, i64 0, i64 0
  ret ptr %5
}

; Function Attrs: mustprogress uwtable
define void @_ZN3nix8Bindings4sortEv(ptr noundef nonnull align 8 dereferenceable(16) %0) #5 align 2 {
  %2 = alloca ptr, align 8
  store ptr %0, ptr %2, align 8
  %3 = load ptr, ptr %2, align 8
  %4 = getelementptr inbounds %"class.nix::Bindings", ptr %3, i32 0, i32 1
  %5 = load i32, ptr %4, align 4
  %6 = icmp ne i32 %5, 0
  br i1 %6, label %7, label %10

7:                                                ; preds = %1
  %8 = call noundef ptr @_ZN3nix8Bindings5beginEv(ptr noundef nonnull align 8 dereferenceable(16) %3)
  %9 = call noundef ptr @_ZN3nix8Bindings3endEv(ptr noundef nonnull align 8 dereferenceable(16) %3)
  call void @_ZSt4sortIPN3nix4AttrEEvT_S3_(ptr noundef %8, ptr noundef %9)
  br label %10

10:                                               ; preds = %7, %1
  ret void
}