; Function Attrs: mustprogress uwtable
define void @_ZN3nix8Bindings4sortEv(ptr noundef nonnull align 8 dereferenceable(16) %0) local_unnamed_addr #4 align 2 {
  %2 = getelementptr inbounds i8, ptr %0, i64 4
  %3 = load i32, ptr %2, align 4
  %.not = icmp eq i32 %3, 0
  br i1 %.not, label %_ZSt4sortIPN3nix4AttrEEvT_S3_.exit, label %4

4:                                                ; preds = %1
  %5 = zext i32 %3 to i64
  %.ptr = getelementptr inbounds i8, ptr %0, i64 16
  %.idx = shl nuw nsw i64 %5, 4
  %6 = getelementptr i8, ptr %0, i64 %.idx
  %.ptr1 = getelementptr i8, ptr %6, i64 16
  %7 = ptrtoint ptr %.ptr1 to i64
  %8 = ptrtoint ptr %.ptr to i64
  %9 = sub i64 %7, %8
  %10 = ashr exact i64 %9, 4
  %11 = tail call i64 @llvm.ctlz.i64(i64 %10, i1 true), !range !4
  %12 = shl nuw nsw i64 %11, 1
  %13 = xor i64 %12, 126
  tail call void @_ZSt16__introsort_loopIPN3nix4AttrElN9__gnu_cxx5__ops15_Iter_less_iterEEvT_S6_T0_T1_(ptr noundef nonnull %.ptr, ptr noundef nonnull %.ptr1, i64 noundef %13)
  tail call void @_ZSt22__final_insertion_sortIPN3nix4AttrEN9__gnu_cxx5__ops15_Iter_less_iterEEvT_S6_T0_(ptr noundef nonnull %.ptr, ptr noundef nonnull %.ptr1)
  br label %_ZSt4sortIPN3nix4AttrEEvT_S3_.exit

_ZSt4sortIPN3nix4AttrEEvT_S3_.exit:               ; preds = %4, %1
  ret void
}